target datalayout = "e-m:e-p270:32:32-p271:32:32-p272:64:64-i64:64-i128:128-f80:128-n8:16:32:64-S128"
target triple = "x86_64-pc-linux-gnu"

@.str.18 = private unnamed_addr constant [3 x i8] c"%u\00", align 1
@stats_sizes_hist = internal global ptr null, align 8
@stats_sizes_buckets = internal global i32 0, align 4
@.str.36 = private unnamed_addr constant [3 x i8] c"%d\00", align 1
@.str.37 = private unnamed_addr constant [13 x i8] c"sizes_status\00", align 1
@.str.38 = private unnamed_addr constant [9 x i8] c"disabled\00", align 1
@.str.39 = private unnamed_addr constant [1 x i8] zeroinitializer, align 1

; Function Attrs: nounwind uwtable
define dso_local void @item_stats_sizes(ptr noundef %0, ptr noundef %1) #0 {
  %3 = alloca ptr, align 8
  %4 = alloca ptr, align 8
  %5 = alloca i32, align 4
  %6 = alloca [12 x i8], align 1
  store ptr %0, ptr %3, align 8, !tbaa !33
  store ptr %1, ptr %4, align 8, !tbaa !33
  %7 = load ptr, ptr @stats_sizes_hist, align 8, !tbaa !79
  %8 = icmp ne ptr %7, null
  br i1 %8, label %9, label %39

9:                                                ; preds = %2
  call void @llvm.lifetime.start.p0(i64 4, ptr %5) #9
  store i32 0, ptr %5, align 4, !tbaa !4
  br label %10

10:                                               ; preds = %35, %9
  %11 = load i32, ptr %5, align 4, !tbaa !4
  %12 = load i32, ptr @stats_sizes_buckets, align 4, !tbaa !4
  %13 = icmp slt i32 %11, %12
  br i1 %13, label %14, label %38

14:                                               ; preds = %10
  %15 = load ptr, ptr @stats_sizes_hist, align 8, !tbaa !79
  %16 = load i32, ptr %5, align 4, !tbaa !4
  %17 = sext i32 %16 to i64
  %18 = getelementptr inbounds i32, ptr %15, i64 %17
  %19 = load i32, ptr %18, align 4, !tbaa !4
  %20 = icmp ne i32 %19, 0
  br i1 %20, label %21, label %34

21:                                               ; preds = %14
  call void @llvm.lifetime.start.p0(i64 12, ptr %6) #9
  %22 = getelementptr inbounds [12 x i8], ptr %6, i64 0, i64 0
  %23 = load i32, ptr %5, align 4, !tbaa !4
  %24 = mul nsw i32 %23, 32
  %25 = call i32 (ptr, i64, ptr, ...) @snprintf(ptr noundef %22, i64 noundef 12, ptr noundef @.str.36, i32 noundef %24) #9
  %26 = getelementptr inbounds [12 x i8], ptr %6, i64 0, i64 0
  %27 = load ptr, ptr %3, align 8, !tbaa !33
  %28 = load ptr, ptr %4, align 8, !tbaa !33
  %29 = load ptr, ptr @stats_sizes_hist, align 8, !tbaa !79
  %30 = load i32, ptr %5, align 4, !tbaa !4
  %31 = sext i32 %30 to i64
  %32 = getelementptr inbounds i32, ptr %29, i64 %31
  %33 = load i32, ptr %32, align 4, !tbaa !4
  call void (ptr, ptr, ptr, ptr, ...) @append_stat(ptr noundef %26, ptr noundef %27, ptr noundef %28, ptr noundef @.str.18, i32 noundef %33)
  call void @llvm.lifetime.end.p0(i64 12, ptr %6) #9
  br label %34

34:                                               ; preds = %21, %14
  br label %35

35:                                               ; preds = %34
  %36 = load i32, ptr %5, align 4, !tbaa !4
  %37 = add nsw i32 %36, 1
  store i32 %37, ptr %5, align 4, !tbaa !4
  br label %10, !llvm.loop !107

38:                                               ; preds = %10
  call void @llvm.lifetime.end.p0(i64 4, ptr %5) #9
  br label %42

39:                                               ; preds = %2
  %40 = load ptr, ptr %3, align 8, !tbaa !33
  %41 = load ptr, ptr %4, align 8, !tbaa !33
  call void (ptr, ptr, ptr, ptr, ...) @append_stat(ptr noundef @.str.37, ptr noundef %40, ptr noundef %41, ptr noundef @.str.38, ptr noundef @.str.39)
  br label %42

42:                                               ; preds = %39, %38
  %43 = load ptr, ptr %3, align 8, !tbaa !33
  %44 = load ptr, ptr %4, align 8, !tbaa !33
  call void %43(ptr noundef null, i16 noundef zeroext 0, ptr noundef null, i32 noundef 0, ptr noundef %44)
  ret void
}