; Function Attrs: nounwind uwtable
define dso_local void @item_stats_sizes(ptr noundef %0, ptr noundef %1) local_unnamed_addr #0 {
  %3 = alloca [12 x i8], align 1
  %4 = load ptr, ptr @stats_sizes_hist, align 8, !tbaa !73
  %.not = icmp eq ptr %4, null
  br i1 %.not, label %22, label %.preheader

.preheader:                                       ; preds = %2
  %5 = load i32, ptr @stats_sizes_buckets, align 4, !tbaa !22
  %6 = icmp sgt i32 %5, 0
  br i1 %6, label %.lr.ph, label %.loopexit

.lr.ph:                                           ; preds = %.preheader, %17
  %7 = phi i32 [ %18, %17 ], [ %5, %.preheader ]
  %8 = phi ptr [ %19, %17 ], [ %4, %.preheader ]
  %indvars.iv = phi i64 [ %indvars.iv.next, %17 ], [ 0, %.preheader ]
  %9 = getelementptr inbounds nuw i32, ptr %8, i64 %indvars.iv
  %10 = load i32, ptr %9, align 4, !tbaa !22
  %.not10 = icmp eq i32 %10, 0
  br i1 %.not10, label %17, label %11

11:                                               ; preds = %.lr.ph
  call void @llvm.lifetime.start.p0(i64 12, ptr nonnull %3) #19
  %indvars.iv.tr = trunc i64 %indvars.iv to i32
  %12 = shl i32 %indvars.iv.tr, 5
  %13 = call i32 (ptr, i64, ptr, ...) @snprintf(ptr noundef nonnull dereferenceable(1) %3, i64 noundef 12, ptr noundef nonnull @.str.36, i32 noundef %12) #19
  %14 = load ptr, ptr @stats_sizes_hist, align 8, !tbaa !73
  %15 = getelementptr inbounds nuw i32, ptr %14, i64 %indvars.iv
  %16 = load i32, ptr %15, align 4, !tbaa !22
  call void (ptr, ptr, ptr, ptr, ...) @append_stat(ptr noundef nonnull %3, ptr noundef %0, ptr noundef %1, ptr noundef nonnull @.str.18, i32 noundef %16) #19
  call void @llvm.lifetime.end.p0(i64 12, ptr nonnull %3) #19
  %.pre = load ptr, ptr @stats_sizes_hist, align 8, !tbaa !73
  %.pre14 = load i32, ptr @stats_sizes_buckets, align 4, !tbaa !22
  br label %17

17:                                               ; preds = %.lr.ph, %11
  %18 = phi i32 [ %7, %.lr.ph ], [ %.pre14, %11 ]
  %19 = phi ptr [ %8, %.lr.ph ], [ %.pre, %11 ]
  %indvars.iv.next = add nuw nsw i64 %indvars.iv, 1
  %20 = sext i32 %18 to i64
  %21 = icmp slt i64 %indvars.iv.next, %20
  br i1 %21, label %.lr.ph, label %.loopexit, !llvm.loop !93

22:                                               ; preds = %2
  tail call void (ptr, ptr, ptr, ptr, ...) @append_stat(ptr noundef nonnull @.str.37, ptr noundef %0, ptr noundef %1, ptr noundef nonnull @.str.38, ptr noundef nonnull @.str.39) #19
  br label %.loopexit

.loopexit:                                        ; preds = %17, %.preheader, %22
  call void %0(ptr noundef null, i16 noundef zeroext 0, ptr noundef null, i32 noundef 0, ptr noundef %1) #19
  ret void
}